target datalayout = "e-m:e-p270:32:32-p271:32:32-p272:64:64-i64:64-i128:128-f80:128-n8:16:32:64-S128"
target triple = "x86_64-pc-linux-gnu"

%"struct.vas::KalmanFilterNoOpencv::kalmanfilter1d32i" = type { [2 x i32], [2 x [2 x i32]], [2 x [2 x i32]], i32, [2 x [2 x i32]], [2 x i32] }

; Function Attrs: mustprogress nounwind uwtable
define hidden void @_ZN3vas20KalmanFilterNoOpencv30kalmanfilter1d32i_update_phaseEPNS0_17kalmanfilter1d32iEiPi(ptr noundef nonnull align 4 dereferenceable(284) %0, ptr noundef %1, i32 noundef %2, ptr noundef %3) #2 align 2 {
  %5 = alloca ptr, align 8
  %6 = alloca ptr, align 8
  %7 = alloca i32, align 4
  %8 = alloca ptr, align 8
  %9 = alloca i32, align 4
  %10 = alloca i32, align 4
  %11 = alloca [2 x i32], align 4
  %12 = alloca [2 x [2 x i32]], align 16
  %13 = alloca i32, align 4
  store ptr %0, ptr %5, align 8, !tbaa !3
  store ptr %1, ptr %6, align 8, !tbaa !23
  store i32 %2, ptr %7, align 4, !tbaa !17
  store ptr %3, ptr %8, align 8, !tbaa !25
  call void @llvm.lifetime.start.p0(i64 4, ptr %9) #7
  call void @llvm.lifetime.start.p0(i64 4, ptr %10) #7
  call void @llvm.lifetime.start.p0(i64 8, ptr %11) #7
  call void @llvm.lifetime.start.p0(i64 16, ptr %12) #7
  %14 = load ptr, ptr %6, align 8, !tbaa !23
  %15 = getelementptr inbounds nuw %"struct.vas::KalmanFilterNoOpencv::kalmanfilter1d32i", ptr %14, i32 0, i32 5
  %16 = getelementptr inbounds [2 x i32], ptr %15, i64 0, i64 0
  %17 = load i32, ptr %16, align 4, !tbaa !17
  %18 = icmp eq i32 %17, 0
  br i1 %18, label %19, label %29

19:                                               ; preds = %4
  %20 = load ptr, ptr %6, align 8, !tbaa !23
  %21 = getelementptr inbounds nuw %"struct.vas::KalmanFilterNoOpencv::kalmanfilter1d32i", ptr %20, i32 0, i32 4
  %22 = getelementptr inbounds [2 x [2 x i32]], ptr %21, i64 0, i64 0
  %23 = getelementptr inbounds [2 x i32], ptr %22, i64 0, i64 0
  %24 = load i32, ptr %23, align 4, !tbaa !17
  %25 = icmp eq i32 %24, 0
  br i1 %25, label %26, label %29

26:                                               ; preds = %19
  %27 = load i32, ptr %7, align 4, !tbaa !17
  %28 = load ptr, ptr %8, align 8, !tbaa !25
  store i32 %27, ptr %28, align 4, !tbaa !17
  store i32 1, ptr %13, align 4
  br label %232

29:                                               ; preds = %19, %4
  %30 = load i32, ptr %7, align 4, !tbaa !17
  %31 = load ptr, ptr %6, align 8, !tbaa !23
  %32 = getelementptr inbounds nuw %"struct.vas::KalmanFilterNoOpencv::kalmanfilter1d32i", ptr %31, i32 0, i32 5
  %33 = getelementptr inbounds [2 x i32], ptr %32, i64 0, i64 0
  %34 = load i32, ptr %33, align 4, !tbaa !17
  %35 = sub nsw i32 %30, %34
  store i32 %35, ptr %9, align 4, !tbaa !17
  %36 = load ptr, ptr %6, align 8, !tbaa !23
  %37 = getelementptr inbounds nuw %"struct.vas::KalmanFilterNoOpencv::kalmanfilter1d32i", ptr %36, i32 0, i32 4
  %38 = getelementptr inbounds [2 x [2 x i32]], ptr %37, i64 0, i64 0
  %39 = getelementptr inbounds [2 x i32], ptr %38, i64 0, i64 0
  %40 = load i32, ptr %39, align 4, !tbaa !17
  %41 = load ptr, ptr %6, align 8, !tbaa !23
  %42 = getelementptr inbounds nuw %"struct.vas::KalmanFilterNoOpencv::kalmanfilter1d32i", ptr %41, i32 0, i32 3
  %43 = load i32, ptr %42, align 4, !tbaa !32
  %44 = add nsw i32 %40, %43
  store i32 %44, ptr %10, align 4, !tbaa !17
  %45 = load i32, ptr %10, align 4, !tbaa !17
  %46 = icmp eq i32 %45, 0
  br i1 %46, label %47, label %50

47:                                               ; preds = %29
  %48 = load i32, ptr %7, align 4, !tbaa !17
  %49 = load ptr, ptr %8, align 8, !tbaa !25
  store i32 %48, ptr %49, align 4, !tbaa !17
  store i32 1, ptr %13, align 4
  br label %232

50:                                               ; preds = %29
  %51 = load ptr, ptr %6, align 8, !tbaa !23
  %52 = getelementptr inbounds nuw %"struct.vas::KalmanFilterNoOpencv::kalmanfilter1d32i", ptr %51, i32 0, i32 4
  %53 = getelementptr inbounds [2 x [2 x i32]], ptr %52, i64 0, i64 0
  %54 = getelementptr inbounds [2 x i32], ptr %53, i64 0, i64 0
  %55 = load i32, ptr %54, align 4, !tbaa !17
  %56 = getelementptr inbounds [2 x i32], ptr %11, i64 0, i64 0
  store i32 %55, ptr %56, align 4, !tbaa !17
  %57 = load ptr, ptr %6, align 8, !tbaa !23
  %58 = getelementptr inbounds nuw %"struct.vas::KalmanFilterNoOpencv::kalmanfilter1d32i", ptr %57, i32 0, i32 4
  %59 = getelementptr inbounds [2 x [2 x i32]], ptr %58, i64 0, i64 1
  %60 = getelementptr inbounds [2 x i32], ptr %59, i64 0, i64 0
  %61 = load i32, ptr %60, align 4, !tbaa !17
  %62 = getelementptr inbounds [2 x i32], ptr %11, i64 0, i64 1
  store i32 %61, ptr %62, align 4, !tbaa !17
  %63 = load ptr, ptr %6, align 8, !tbaa !23
  %64 = getelementptr inbounds nuw %"struct.vas::KalmanFilterNoOpencv::kalmanfilter1d32i", ptr %63, i32 0, i32 5
  %65 = getelementptr inbounds [2 x i32], ptr %64, i64 0, i64 0
  %66 = load i32, ptr %65, align 4, !tbaa !17
  %67 = getelementptr inbounds [2 x i32], ptr %11, i64 0, i64 0
  %68 = load i32, ptr %67, align 4, !tbaa !17
  %69 = load i32, ptr %9, align 4, !tbaa !17
  %70 = mul nsw i32 %68, %69
  %71 = load i32, ptr %10, align 4, !tbaa !17
  %72 = sdiv i32 %70, %71
  %73 = add nsw i32 %66, %72
  %74 = load ptr, ptr %6, align 8, !tbaa !23
  %75 = getelementptr inbounds nuw %"struct.vas::KalmanFilterNoOpencv::kalmanfilter1d32i", ptr %74, i32 0, i32 0
  %76 = getelementptr inbounds [2 x i32], ptr %75, i64 0, i64 0
  store i32 %73, ptr %76, align 4, !tbaa !17
  %77 = load ptr, ptr %6, align 8, !tbaa !23
  %78 = getelementptr inbounds nuw %"struct.vas::KalmanFilterNoOpencv::kalmanfilter1d32i", ptr %77, i32 0, i32 5
  %79 = getelementptr inbounds [2 x i32], ptr %78, i64 0, i64 1
  %80 = load i32, ptr %79, align 4, !tbaa !17
  %81 = getelementptr inbounds [2 x i32], ptr %11, i64 0, i64 1
  %82 = load i32, ptr %81, align 4, !tbaa !17
  %83 = load i32, ptr %9, align 4, !tbaa !17
  %84 = mul nsw i32 %82, %83
  %85 = load i32, ptr %10, align 4, !tbaa !17
  %86 = sdiv i32 %84, %85
  %87 = add nsw i32 %80, %86
  %88 = load ptr, ptr %6, align 8, !tbaa !23
  %89 = getelementptr inbounds nuw %"struct.vas::KalmanFilterNoOpencv::kalmanfilter1d32i", ptr %88, i32 0, i32 0
  %90 = getelementptr inbounds [2 x i32], ptr %89, i64 0, i64 1
  store i32 %87, ptr %90, align 4, !tbaa !17
  %91 = load i32, ptr %10, align 4, !tbaa !17
  %92 = getelementptr inbounds [2 x i32], ptr %11, i64 0, i64 0
  %93 = load i32, ptr %92, align 4, !tbaa !17
  %94 = sub nsw i32 %91, %93
  %95 = getelementptr inbounds [2 x [2 x i32]], ptr %12, i64 0, i64 0
  %96 = getelementptr inbounds [2 x i32], ptr %95, i64 0, i64 0
  store i32 %94, ptr %96, align 16, !tbaa !17
  %97 = getelementptr inbounds [2 x [2 x i32]], ptr %12, i64 0, i64 0
  %98 = getelementptr inbounds [2 x i32], ptr %97, i64 0, i64 1
  store i32 0, ptr %98, align 4, !tbaa !17
  %99 = getelementptr inbounds [2 x i32], ptr %11, i64 0, i64 1
  %100 = load i32, ptr %99, align 4, !tbaa !17
  %101 = sub nsw i32 0, %100
  %102 = getelementptr inbounds [2 x [2 x i32]], ptr %12, i64 0, i64 1
  %103 = getelementptr inbounds [2 x i32], ptr %102, i64 0, i64 0
  store i32 %101, ptr %103, align 8, !tbaa !17
  %104 = load i32, ptr %10, align 4, !tbaa !17
  %105 = getelementptr inbounds [2 x [2 x i32]], ptr %12, i64 0, i64 1
  %106 = getelementptr inbounds [2 x i32], ptr %105, i64 0, i64 1
  store i32 %104, ptr %106, align 4, !tbaa !17
  %107 = getelementptr inbounds [2 x [2 x i32]], ptr %12, i64 0, i64 0
  %108 = getelementptr inbounds [2 x i32], ptr %107, i64 0, i64 0
  %109 = load i32, ptr %108, align 16, !tbaa !17
  %110 = sitofp i32 %109 to double
  %111 = load ptr, ptr %6, align 8, !tbaa !23
  %112 = getelementptr inbounds nuw %"struct.vas::KalmanFilterNoOpencv::kalmanfilter1d32i", ptr %111, i32 0, i32 4
  %113 = getelementptr inbounds [2 x [2 x i32]], ptr %112, i64 0, i64 0
  %114 = getelementptr inbounds [2 x i32], ptr %113, i64 0, i64 0
  %115 = load i32, ptr %114, align 4, !tbaa !17
  %116 = sitofp i32 %115 to double
  %117 = getelementptr inbounds [2 x [2 x i32]], ptr %12, i64 0, i64 0
  %118 = getelementptr inbounds [2 x i32], ptr %117, i64 0, i64 1
  %119 = load i32, ptr %118, align 4, !tbaa !17
  %120 = sitofp i32 %119 to double
  %121 = load ptr, ptr %6, align 8, !tbaa !23
  %122 = getelementptr inbounds nuw %"struct.vas::KalmanFilterNoOpencv::kalmanfilter1d32i", ptr %121, i32 0, i32 4
  %123 = getelementptr inbounds [2 x [2 x i32]], ptr %122, i64 0, i64 1
  %124 = getelementptr inbounds [2 x i32], ptr %123, i64 0, i64 0
  %125 = load i32, ptr %124, align 4, !tbaa !17
  %126 = sitofp i32 %125 to double
  %127 = fmul double %120, %126
  %128 = call double @llvm.fmuladd.f64(double %110, double %116, double %127)
  %129 = load i32, ptr %10, align 4, !tbaa !17
  %130 = sitofp i32 %129 to double
  %131 = fdiv double %128, %130
  %132 = fptosi double %131 to i32
  %133 = load ptr, ptr %6, align 8, !tbaa !23
  %134 = getelementptr inbounds nuw %"struct.vas::KalmanFilterNoOpencv::kalmanfilter1d32i", ptr %133, i32 0, i32 1
  %135 = getelementptr inbounds [2 x [2 x i32]], ptr %134, i64 0, i64 0
  %136 = getelementptr inbounds [2 x i32], ptr %135, i64 0, i64 0
  store i32 %132, ptr %136, align 4, !tbaa !17
  %137 = getelementptr inbounds [2 x [2 x i32]], ptr %12, i64 0, i64 0
  %138 = getelementptr inbounds [2 x i32], ptr %137, i64 0, i64 0
  %139 = load i32, ptr %138, align 16, !tbaa !17
  %140 = sitofp i32 %139 to double
  %141 = load ptr, ptr %6, align 8, !tbaa !23
  %142 = getelementptr inbounds nuw %"struct.vas::KalmanFilterNoOpencv::kalmanfilter1d32i", ptr %141, i32 0, i32 4
  %143 = getelementptr inbounds [2 x [2 x i32]], ptr %142, i64 0, i64 0
  %144 = getelementptr inbounds [2 x i32], ptr %143, i64 0, i64 1
  %145 = load i32, ptr %144, align 4, !tbaa !17
  %146 = sitofp i32 %145 to double
  %147 = getelementptr inbounds [2 x [2 x i32]], ptr %12, i64 0, i64 0
  %148 = getelementptr inbounds [2 x i32], ptr %147, i64 0, i64 1
  %149 = load i32, ptr %148, align 4, !tbaa !17
  %150 = sitofp i32 %149 to double
  %151 = load ptr, ptr %6, align 8, !tbaa !23
  %152 = getelementptr inbounds nuw %"struct.vas::KalmanFilterNoOpencv::kalmanfilter1d32i", ptr %151, i32 0, i32 4
  %153 = getelementptr inbounds [2 x [2 x i32]], ptr %152, i64 0, i64 1
  %154 = getelementptr inbounds [2 x i32], ptr %153, i64 0, i64 1
  %155 = load i32, ptr %154, align 4, !tbaa !17
  %156 = sitofp i32 %155 to double
  %157 = fmul double %150, %156
  %158 = call double @llvm.fmuladd.f64(double %140, double %146, double %157)
  %159 = load i32, ptr %10, align 4, !tbaa !17
  %160 = sitofp i32 %159 to double
  %161 = fdiv double %158, %160
  %162 = fptosi double %161 to i32
  %163 = load ptr, ptr %6, align 8, !tbaa !23
  %164 = getelementptr inbounds nuw %"struct.vas::KalmanFilterNoOpencv::kalmanfilter1d32i", ptr %163, i32 0, i32 1
  %165 = getelementptr inbounds [2 x [2 x i32]], ptr %164, i64 0, i64 0
  %166 = getelementptr inbounds [2 x i32], ptr %165, i64 0, i64 1
  store i32 %162, ptr %166, align 4, !tbaa !17
  %167 = getelementptr inbounds [2 x [2 x i32]], ptr %12, i64 0, i64 1
  %168 = getelementptr inbounds [2 x i32], ptr %167, i64 0, i64 0
  %169 = load i32, ptr %168, align 8, !tbaa !17
  %170 = sitofp i32 %169 to double
  %171 = load ptr, ptr %6, align 8, !tbaa !23
  %172 = getelementptr inbounds nuw %"struct.vas::KalmanFilterNoOpencv::kalmanfilter1d32i", ptr %171, i32 0, i32 4
  %173 = getelementptr inbounds [2 x [2 x i32]], ptr %172, i64 0, i64 0
  %174 = getelementptr inbounds [2 x i32], ptr %173, i64 0, i64 0
  %175 = load i32, ptr %174, align 4, !tbaa !17
  %176 = sitofp i32 %175 to double
  %177 = getelementptr inbounds [2 x [2 x i32]], ptr %12, i64 0, i64 1
  %178 = getelementptr inbounds [2 x i32], ptr %177, i64 0, i64 1
  %179 = load i32, ptr %178, align 4, !tbaa !17
  %180 = sitofp i32 %179 to double
  %181 = load ptr, ptr %6, align 8, !tbaa !23
  %182 = getelementptr inbounds nuw %"struct.vas::KalmanFilterNoOpencv::kalmanfilter1d32i", ptr %181, i32 0, i32 4
  %183 = getelementptr inbounds [2 x [2 x i32]], ptr %182, i64 0, i64 1
  %184 = getelementptr inbounds [2 x i32], ptr %183, i64 0, i64 0
  %185 = load i32, ptr %184, align 4, !tbaa !17
  %186 = sitofp i32 %185 to double
  %187 = fmul double %180, %186
  %188 = call double @llvm.fmuladd.f64(double %170, double %176, double %187)
  %189 = load i32, ptr %10, align 4, !tbaa !17
  %190 = sitofp i32 %189 to double
  %191 = fdiv double %188, %190
  %192 = fptosi double %191 to i32
  %193 = load ptr, ptr %6, align 8, !tbaa !23
  %194 = getelementptr inbounds nuw %"struct.vas::KalmanFilterNoOpencv::kalmanfilter1d32i", ptr %193, i32 0, i32 1
  %195 = getelementptr inbounds [2 x [2 x i32]], ptr %194, i64 0, i64 1
  %196 = getelementptr inbounds [2 x i32], ptr %195, i64 0, i64 0
  store i32 %192, ptr %196, align 4, !tbaa !17
  %197 = getelementptr inbounds [2 x [2 x i32]], ptr %12, i64 0, i64 1
  %198 = getelementptr inbounds [2 x i32], ptr %197, i64 0, i64 0
  %199 = load i32, ptr %198, align 8, !tbaa !17
  %200 = sitofp i32 %199 to double
  %201 = load ptr, ptr %6, align 8, !tbaa !23
  %202 = getelementptr inbounds nuw %"struct.vas::KalmanFilterNoOpencv::kalmanfilter1d32i", ptr %201, i32 0, i32 4
  %203 = getelementptr inbounds [2 x [2 x i32]], ptr %202, i64 0, i64 0
  %204 = getelementptr inbounds [2 x i32], ptr %203, i64 0, i64 1
  %205 = load i32, ptr %204, align 4, !tbaa !17
  %206 = sitofp i32 %205 to double
  %207 = getelementptr inbounds [2 x [2 x i32]], ptr %12, i64 0, i64 1
  %208 = getelementptr inbounds [2 x i32], ptr %207, i64 0, i64 1
  %209 = load i32, ptr %208, align 4, !tbaa !17
  %210 = sitofp i32 %209 to double
  %211 = load ptr, ptr %6, align 8, !tbaa !23
  %212 = getelementptr inbounds nuw %"struct.vas::KalmanFilterNoOpencv::kalmanfilter1d32i", ptr %211, i32 0, i32 4
  %213 = getelementptr inbounds [2 x [2 x i32]], ptr %212, i64 0, i64 1
  %214 = getelementptr inbounds [2 x i32], ptr %213, i64 0, i64 1
  %215 = load i32, ptr %214, align 4, !tbaa !17
  %216 = sitofp i32 %215 to double
  %217 = fmul double %210, %216
  %218 = call double @llvm.fmuladd.f64(double %200, double %206, double %217)
  %219 = load i32, ptr %10, align 4, !tbaa !17
  %220 = sitofp i32 %219 to double
  %221 = fdiv double %218, %220
  %222 = fptosi double %221 to i32
  %223 = load ptr, ptr %6, align 8, !tbaa !23
  %224 = getelementptr inbounds nuw %"struct.vas::KalmanFilterNoOpencv::kalmanfilter1d32i", ptr %223, i32 0, i32 1
  %225 = getelementptr inbounds [2 x [2 x i32]], ptr %224, i64 0, i64 1
  %226 = getelementptr inbounds [2 x i32], ptr %225, i64 0, i64 1
  store i32 %222, ptr %226, align 4, !tbaa !17
  %227 = load ptr, ptr %6, align 8, !tbaa !23
  %228 = getelementptr inbounds nuw %"struct.vas::KalmanFilterNoOpencv::kalmanfilter1d32i", ptr %227, i32 0, i32 0
  %229 = getelementptr inbounds [2 x i32], ptr %228, i64 0, i64 0
  %230 = load i32, ptr %229, align 4, !tbaa !17
  %231 = load ptr, ptr %8, align 8, !tbaa !25
  store i32 %230, ptr %231, align 4, !tbaa !17
  store i32 0, ptr %13, align 4
  br label %232

232:                                              ; preds = %50, %47, %26
  call void @llvm.lifetime.end.p0(i64 16, ptr %12) #7
  call void @llvm.lifetime.end.p0(i64 8, ptr %11) #7
  call void @llvm.lifetime.end.p0(i64 4, ptr %10) #7
  call void @llvm.lifetime.end.p0(i64 4, ptr %9) #7
  %233 = load i32, ptr %13, align 4
  switch i32 %233, label %235 [
    i32 0, label %234
    i32 1, label %234
  ]

234:                                              ; preds = %232, %232
  ret void

235:                                              ; preds = %232
  unreachable
}