; Function Attrs: mustprogress nofree norecurse nosync nounwind willreturn memory(argmem: readwrite) uwtable
define hidden void @_ZN3vas20KalmanFilterNoOpencv30kalmanfilter1d32i_update_phaseEPNS0_17kalmanfilter1d32iEiPi(ptr noundef nonnull readnone align 4 captures(none) dereferenceable(284) %0, ptr noundef captures(none) %1, i32 noundef %2, ptr noundef writeonly captures(none) initializes((0, 4)) %3) local_unnamed_addr #0 align 2 {
  %5 = getelementptr inbounds nuw i8, ptr %1, i64 60
  %6 = load i32, ptr %5, align 4, !tbaa !15
  %7 = icmp eq i32 %6, 0
  %8 = getelementptr inbounds nuw i8, ptr %1, i64 44
  %9 = load i32, ptr %8, align 4, !tbaa !15
  %10 = icmp eq i32 %9, 0
  %or.cond = select i1 %7, i1 %10, i1 false
  br i1 %or.cond, label %60, label %._crit_edge

._crit_edge:                                      ; preds = %4
  %11 = getelementptr inbounds nuw i8, ptr %1, i64 40
  %12 = load i32, ptr %11, align 4, !tbaa !22
  %13 = add nsw i32 %12, %9
  %14 = icmp eq i32 %13, 0
  br i1 %14, label %60, label %15

15:                                               ; preds = %._crit_edge
  %16 = sub nsw i32 %2, %6
  %17 = getelementptr inbounds nuw i8, ptr %1, i64 52
  %18 = load i32, ptr %17, align 4, !tbaa !15
  %19 = mul nsw i32 %9, %16
  %20 = sdiv i32 %19, %13
  %21 = add nsw i32 %20, %6
  store i32 %21, ptr %1, align 4, !tbaa !15
  %22 = getelementptr inbounds nuw i8, ptr %1, i64 64
  %23 = load i32, ptr %22, align 4, !tbaa !15
  %24 = mul nsw i32 %18, %16
  %25 = sdiv i32 %24, %13
  %26 = add nsw i32 %25, %23
  %27 = getelementptr inbounds nuw i8, ptr %1, i64 4
  store i32 %26, ptr %27, align 4, !tbaa !15
  %28 = sub nsw i32 0, %18
  %29 = sitofp i32 %12 to double
  %30 = sitofp i32 %9 to double
  %31 = sitofp i32 %18 to double
  %32 = tail call double @llvm.copysign.f64(double 0.000000e+00, double %31)
  %33 = tail call double @llvm.fmuladd.f64(double %29, double %30, double %32)
  %34 = sitofp i32 %13 to double
  %35 = fdiv double %33, %34
  %36 = fptosi double %35 to i32
  %37 = getelementptr inbounds nuw i8, ptr %1, i64 8
  store i32 %36, ptr %37, align 4, !tbaa !15
  %38 = getelementptr inbounds nuw i8, ptr %1, i64 48
  %39 = load i32, ptr %38, align 4, !tbaa !15
  %40 = sitofp i32 %39 to double
  %41 = getelementptr inbounds nuw i8, ptr %1, i64 56
  %42 = load i32, ptr %41, align 4, !tbaa !15
  %43 = sitofp i32 %42 to double
  %44 = tail call double @llvm.copysign.f64(double 0.000000e+00, double %43)
  %45 = tail call double @llvm.fmuladd.f64(double %29, double %40, double %44)
  %46 = fdiv double %45, %34
  %47 = fptosi double %46 to i32
  %48 = getelementptr inbounds nuw i8, ptr %1, i64 12
  store i32 %47, ptr %48, align 4, !tbaa !15
  %49 = sitofp i32 %28 to double
  %50 = fmul double %34, %31
  %51 = tail call double @llvm.fmuladd.f64(double %49, double %30, double %50)
  %52 = fdiv double %51, %34
  %53 = fptosi double %52 to i32
  %54 = getelementptr inbounds nuw i8, ptr %1, i64 16
  store i32 %53, ptr %54, align 4, !tbaa !15
  %55 = fmul double %34, %43
  %56 = tail call double @llvm.fmuladd.f64(double %49, double %40, double %55)
  %57 = fdiv double %56, %34
  %58 = fptosi double %57 to i32
  %59 = getelementptr inbounds nuw i8, ptr %1, i64 20
  store i32 %58, ptr %59, align 4, !tbaa !15
  br label %60

60:                                               ; preds = %._crit_edge, %4, %15
  %.sink = phi i32 [ %21, %15 ], [ %2, %4 ], [ %2, %._crit_edge ]
  store i32 %.sink, ptr %3, align 4, !tbaa !15
  ret void
}